; Function Attrs: mustprogress nofree norecurse nosync nounwind willreturn memory(read, inaccessiblemem: none) uwtable
define noundef i64 @_ZNK6casadi16SparsityInternal8nnz_diagEv(ptr nocapture noundef nonnull readonly align 8 dereferenceable(56) %0) local_unnamed_addr #11 align 2 {
  %2 = getelementptr inbounds i8, ptr %0, i64 24
  %3 = load ptr, ptr %2, align 8
  %4 = getelementptr inbounds i8, ptr %3, i64 16
  %5 = getelementptr inbounds i8, ptr %3, i64 8
  %6 = load i64, ptr %5, align 8
  %7 = getelementptr inbounds i64, ptr %4, i64 %6
  %8 = getelementptr inbounds i8, ptr %7, i64 8
  %9 = icmp sgt i64 %6, 0
  br i1 %9, label %.lr.ph20.preheader, label %._crit_edge

.lr.ph20.preheader:                               ; preds = %1
  %.pre = load i64, ptr %4, align 8
  br label %.lr.ph20

.loopexit:                                        ; preds = %.lr.ph, %.lr.ph20
  %.1.lcssa = phi i64 [ %.01418, %.lr.ph20 ], [ %19, %.lr.ph ]
  %exitcond22.not = icmp eq i64 %11, %6
  br i1 %exitcond22.not, label %._crit_edge, label %.lr.ph20, !llvm.loop !205

.lr.ph20:                                         ; preds = %.lr.ph20.preheader, %.loopexit
  %10 = phi i64 [ %13, %.loopexit ], [ %.pre, %.lr.ph20.preheader ]
  %.01319 = phi i64 [ %11, %.loopexit ], [ 0, %.lr.ph20.preheader ]
  %.01418 = phi i64 [ %.1.lcssa, %.loopexit ], [ 0, %.lr.ph20.preheader ]
  %11 = add nuw nsw i64 %.01319, 1
  %12 = getelementptr inbounds i64, ptr %4, i64 %11
  %13 = load i64, ptr %12, align 8
  %14 = icmp slt i64 %10, %13
  br i1 %14, label %.lr.ph, label %.loopexit

.lr.ph:                                           ; preds = %.lr.ph20, %.lr.ph
  %.016 = phi i64 [ %20, %.lr.ph ], [ %10, %.lr.ph20 ]
  %.115 = phi i64 [ %19, %.lr.ph ], [ %.01418, %.lr.ph20 ]
  %15 = getelementptr inbounds i64, ptr %8, i64 %.016
  %16 = load i64, ptr %15, align 8
  %17 = icmp eq i64 %16, %.01319
  %18 = zext i1 %17 to i64
  %19 = add nsw i64 %.115, %18
  %20 = add nsw i64 %.016, 1
  %exitcond.not = icmp eq i64 %20, %13
  br i1 %exitcond.not, label %.loopexit, label %.lr.ph, !llvm.loop !206

._crit_edge:                                      ; preds = %.loopexit, %1
  %.014.lcssa = phi i64 [ 0, %1 ], [ %.1.lcssa, %.loopexit ]
  ret i64 %.014.lcssa
}